(dp0
(ccopy_reg
_reconstructor
p1
(cfeatureBasedGameState
FeatureBasedGameState
p2
c__builtin__
object
p3
Ntp4
Rp5
(S'West'
p6
I01
tp7
bg6
tp8
g1
(cmodel
ModelEntry
p9
c__builtin__
tuple
p10
(I1
F126.3699999999999
I113
F-488.16814159292056
tp11
tp12
Rp13
s(g1
(g2
g3
Ntp14
Rp15
(S'East'
p16
I01
tp17
bS'Stop'
p18
tp19
g1
(g9
g10
(I0
F1.86
I2
F-507.0
tp20
tp21
Rp22
s(g1
(g2
g3
Ntp23
Rp24
(S'North'
p25
I00
tp26
bg25
tp27
g1
(g9
g10
(I6844
F78397.24000000063
F8541.976953780513
F429.82104412969653
tp28
tp29
Rp30
s(g1
(g2
g3
Ntp31
Rp32
(g6
I01
tp33
bg18
tp34
g1
(g9
g10
(I22
F443.35000000000025
I218
F-396.6284403669725
tp35
tp36
Rp37
s(g1
(g2
g3
Ntp38
Rp39
(g6
I00
tp40
bS'South'
p41
tp42
g1
(g9
g10
(I1
F203.92
I191
F-493.23560209424096
tp43
tp44
Rp45
s(g1
(g2
g3
Ntp46
Rp47
(g25
I00
tp48
bg16
tp49
g1
(g9
g10
(I40
F724.4600000000005
I315
F-370.01269841269885
tp50
tp51
Rp52
s(g1
(g2
g3
Ntp53
Rp54
(g16
I01
tp55
bg6
tp56
g1
(g9
g10
(I0
F1.05
I1
F-495.0
tp57
tp58
Rp59
s(g1
(g2
g3
Ntp60
Rp61
(g6
I01
tp62
bg25
tp63
g1
(g9
g10
(I1
F101.73000000000002
I96
F-494.03124999999994
tp64
tp65
Rp66
s(g1
(g2
g3
Ntp67
Rp68
(g25
I01
tp69
bg25
tp70
g1
(g9
g10
(I1
F292.52
I296
F-501.17567567567596
tp71
tp72
Rp73
s(g1
(g2
g3
Ntp74
Rp75
(g25
I01
tp76
bg41
tp77
g1
(g9
g10
(I1200
F13752.830000000082
F1551.850067222528
F308.427087628866
tp78
tp79
Rp80
s(g1
(g2
g3
Ntp81
Rp82
(g41
I01
tp83
bg6
tp84
g1
(g9
g10
(I258
F2900.2199999999903
I267
F486.22471910112387
tp85
tp86
Rp87
s(g1
(g2
g3
Ntp88
Rp89
(g25
I00
tp90
bg6
tp91
g1
(g9
g10
(I2
F1049.9800000000066
F1040.5304481990133
F-498.34013435700626
tp92
tp93
Rp94
s(g1
(g2
g3
Ntp95
Rp96
(g41
I00
tp97
bg18
tp98
g1
(g9
g10
(I6
F88.61999999999998
I26
F-259.15384615384613
tp99
tp100
Rp101
s(g1
(g2
g3
Ntp102
Rp103
(g25
I01
tp104
bg18
tp105
g1
(g9
g10
(I0
F266.72000000000025
I288
F-507.38888888888863
tp106
tp107
Rp108
s(g1
(g2
g3
Ntp109
Rp110
(g41
I01
tp111
bg16
tp112
g1
(g9
g10
(I1108
F12431.63999999991
F1133.9013806706114
F518.5081834215168
tp113
tp114
Rp115
s(g1
(g2
g3
Ntp116
Rp117
(g6
I00
tp118
bg25
tp119
g1
(g9
g10
(I3
F223.52000000000004
I201
F-488.7960199004976
tp120
tp121
Rp122
s(g1
(g2
g3
Ntp123
Rp124
(g41
I00
tp125
bg41
tp126
g1
(g9
g10
(I5639
F63299.73999999823
F5687.347232705854
F602.5639803094219
tp127
tp128
Rp129
s(g1
(g2
g3
Ntp130
Rp131
(g41
I00
tp132
bg25
tp133
g1
(g9
g10
(I4
F63.870000000000005
I22
F-309.6818181818183
tp134
tp135
Rp136
s(g1
(g2
g3
Ntp137
Rp138
(g6
I00
tp139
bg6
tp140
g1
(g9
g10
(I6844
F77322.79000000034
F7433.106162620362
F552.2491041162219
tp141
tp142
Rp143
s(g1
(g2
g3
Ntp144
Rp145
(g16
I01
tp146
bg41
tp147
g1
(g9
g10
(I1
F13.23
I3
F-159.0
tp148
tp149
Rp150
s(g1
(g2
g3
Ntp151
Rp152
(g16
I00
tp153
bg18
tp154
g1
(g9
g10
(I1
F16.93
I7
F-358.1428571428571
tp155
tp156
Rp157
s(g1
(g2
g3
Ntp158
Rp159
(g6
I00
tp160
bg18
tp161
g1
(g9
g10
(I20
F509.32999999999987
I306
F-433.5522875816996
tp162
tp163
Rp164
s(g1
(g2
g3
Ntp165
Rp166
(g41
I00
tp167
bg16
tp168
g1
(g9
g10
(I11
F146.79
I33
F-155.18181818181813
tp169
tp170
Rp171
s(g1
(g2
g3
Ntp172
Rp173
(g16
I00
tp174
bg6
tp175
g1
(g9
g10
(I1
F18.52
I8
F-368.5
tp176
tp177
Rp178
s(g1
(g2
g3
Ntp179
Rp180
(g6
I00
tp181
bg16
tp182
g1
(g9
g10
(I31
F639.0099999999991
I330
F-406.3606060606064
tp183
tp184
Rp185
s(g1
(g2
g3
Ntp186
Rp187
(g41
I01
tp188
bg25
tp189
g1
(g9
g10
(I13
F167.43999999999997
I33
F-92.6060606060606
tp190
tp191
Rp192
s(g1
(g2
g3
Ntp193
Rp194
(g6
I01
tp195
bg41
tp196
g1
(g9
g10
(I2209
F24902.520000000655
F2400.773557053664
F470.6878967097043
tp197
tp198
Rp199
s(g1
(g2
g3
Ntp200
Rp201
(g41
I00
tp202
bg6
tp203
g1
(g9
g10
(I8
F112.71999999999997
I29
F-211.3103448275862
tp204
tp205
Rp206
s(g1
(g2
g3
Ntp207
Rp208
(g16
I00
tp209
bg16
tp210
g1
(g9
g10
(I1
F24.83
I15
F-434.46666666666675
tp211
tp212
Rp213
s(g1
(g2
g3
Ntp214
Rp215
(g41
I01
tp216
bg41
tp217
g1
(g9
g10
(I1
F24.080000000000002
I13
F-414.7692307692308
tp218
tp219
Rp220
s(g1
(g2
g3
Ntp221
Rp222
(g25
I01
tp223
bg6
tp224
g1
(g9
g10
(I65
F1056.5699999999995
I413
F-344.17191283293073
tp225
tp226
Rp227
s(g1
(g2
g3
Ntp228
Rp229
(g25
I00
tp230
bg18
tp231
g1
(g9
g10
(I8
F1168.0600000000052
I1133
F-496.90556045895903
tp232
tp233
Rp234
s(g1
(g2
g3
Ntp235
Rp236
(g41
I01
tp237
bg18
tp238
g1
(g9
g10
(I30
F366.4699999999999
I58
F31.844827586206897
tp239
tp240
Rp241
s(g1
(g2
g3
Ntp242
Rp243
(g25
I01
tp244
bg16
tp245
g1
(g9
g10
(I1586
F17951.7500000004
F1804.9284192348935
F405.7013850415511
tp246
tp247
Rp248
s(g1
(g2
g3
Ntp249
Rp250
(g6
I01
tp251
bg16
tp252
g1
(g9
g10
(I10
F249.28000000000014
I152
F-436.00000000000006
tp253
tp254
Rp255
s(g1
(g2
g3
Ntp256
Rp257
(g16
I00
tp258
bg41
tp259
g1
(g9
g10
(I1
F16.65
I7
F-362.14285714285717
tp260
tp261
Rp262
s(g1
(g2
g3
Ntp263
Rp264
(g25
I00
tp265
bg41
tp266
g1
(g9
g10
(I10
F1209.530000000005
I1155
F-495.27878787878825
tp267
tp268
Rp269
s(g1
(g2
g3
Ntp270
Rp271
(g16
I01
tp272
bg16
tp273
g1
(g9
g10
(I0
F1.03
I1
F-497.0
tp274
tp275
Rp276
s.