(dp0
(ccopy_reg
_reconstructor
p1
(cfeatureBasedGameState
FeatureBasedGameState
p2
c__builtin__
object
p3
Ntp4
Rp5
(S'West'
p6
I01
tp7
bg6
tp8
g1
(cmodel
ModelEntry
p9
c__builtin__
tuple
p10
(I1
I81
F-485.0123456790124
F93.13999999999999
tp11
tp12
Rp13
s(g1
(g2
g3
Ntp14
Rp15
(S'East'
p16
I01
tp17
bS'Stop'
p18
tp19
g1
(g9
g10
(I0
I1
F-489.0
F1.11
tp20
tp21
Rp22
s(g1
(g2
g3
Ntp23
Rp24
(S'North'
p25
I00
tp26
bg25
tp27
g1
(g9
g10
(I7893
I9084
F388.0779392338169
F89757.0000000019
tp28
tp29
Rp30
s(g1
(g2
g3
Ntp31
Rp32
(g6
I01
tp33
bg18
tp34
g1
(g9
g10
(I9
I118
F-424.2881355932204
F207.3400000000001
tp35
tp36
Rp37
s(g1
(g2
g3
Ntp38
Rp39
(g6
I00
tp40
bS'South'
p41
tp42
g1
(g9
g10
(I1
I134
F-491.75373134328356
F145.0499999999999
tp43
tp44
Rp45
s(g1
(g2
g3
Ntp46
Rp47
(g25
I00
tp48
bg16
tp49
g1
(g9
g10
(I45
I236
F-304.53389830508496
F697.2999999999998
tp50
tp51
Rp52
s(g1
(g2
g3
Ntp53
Rp54
(g16
I01
tp55
bg6
tp56
g1
(g9
g10
(I0
I1
F-489.0
F1.11
tp57
tp58
Rp59
s(g1
(g2
g3
Ntp60
Rp61
(g6
I01
tp62
bg25
tp63
g1
(g9
g10
(I0
I69
F-503.6521739130433
F66.47999999999999
tp64
tp65
Rp66
s(g1
(g2
g3
Ntp67
Rp68
(g25
I01
tp69
bg25
tp70
g1
(g9
g10
(I0
I173
F-503.95953757225465
F166.14999999999998
tp71
tp72
Rp73
s(g1
(g2
g3
Ntp74
Rp75
(g25
I01
tp76
bg41
tp77
g1
(g9
g10
(I1278
I1561
F334.45099295323485
F14586.780000000112
tp78
tp79
Rp80
s(g1
(g2
g3
Ntp81
Rp82
(g41
I01
tp83
bg6
tp84
g1
(g9
g10
(I608
I618
F503.1537216828481
F6817.489999999981
tp85
tp86
Rp87
s(g1
(g2
g3
Ntp88
Rp89
(g25
I00
tp90
bg6
tp91
g1
(g9
g10
(I5
I678
F-493.7817109144541
F720.1600000000037
tp92
tp93
Rp94
s(g1
(g2
g3
Ntp95
Rp96
(g41
I00
tp97
bg18
tp98
g1
(g9
g10
(I3
I21
F-349.9047619047618
F52.52
tp99
tp100
Rp101
s(g1
(g2
g3
Ntp102
Rp103
(g25
I01
tp104
bg18
tp105
g1
(g9
g10
(I53
I306
F-329.05555555555554
F829.09
tp106
tp107
Rp108
s(g1
(g2
g3
Ntp109
Rp110
(g41
I01
tp111
bg16
tp112
g1
(g9
g10
(I1390
I1432
F490.45111731843485
F15615.260000000075
tp113
tp114
Rp115
s(g1
(g2
g3
Ntp116
Rp117
(g6
I00
tp118
bg25
tp119
g1
(g9
g10
(I2
I137
F-488.7591240875914
F152.4
tp120
tp121
Rp122
s(g1
(g2
g3
Ntp123
Rp124
(g41
I00
tp125
bg41
tp126
g1
(g9
g10
(I6612
I6678
F512.6445043426165
F74302.39999999931
tp127
tp128
Rp129
s(g1
(g2
g3
Ntp130
Rp131
(g41
I00
tp132
bg25
tp133
g1
(g9
g10
(I9
I31
F-200.6129032258064
F123.81
tp134
tp135
Rp136
s(g1
(g2
g3
Ntp137
Rp138
(g6
I00
tp139
bg6
tp140
g1
(g9
g10
(I7893
I8337
F467.90800047978854
F89031.49000000171
tp141
tp142
Rp143
s(g1
(g2
g3
Ntp144
Rp145
(g16
I01
tp146
bg41
tp147
g1
(g9
g10
(I1
I2
F-1.0
F11.98
tp148
tp149
Rp150
s(g1
(g2
g3
Ntp151
Rp152
(g16
I00
tp153
bg18
tp154
g1
(g9
g10
(I1
I5
F-300.6
F14.969999999999999
tp155
tp156
Rp157
s(g1
(g2
g3
Ntp158
Rp159
(g6
I00
tp160
bg18
tp161
g1
(g9
g10
(I14
I207
F-431.23671497584513
F349.34000000000003
tp162
tp163
Rp164
s(g1
(g2
g3
Ntp165
Rp166
(g41
I00
tp167
bg16
tp168
g1
(g9
g10
(I19
I45
F-65.3111111111111
F240.61000000000007
tp169
tp170
Rp171
s(g1
(g2
g3
Ntp172
Rp173
(g16
I00
tp174
bg6
tp175
g1
(g9
g10
(I0
I5
F-494.6
F5.270000000000001
tp176
tp177
Rp178
s(g1
(g2
g3
Ntp179
Rp180
(g6
I00
tp181
bg16
tp182
g1
(g9
g10
(I9
I176
F-451.96590909090907
F260.5400000000002
tp183
tp184
Rp185
s(g1
(g2
g3
Ntp186
Rp187
(g41
I01
tp188
bg25
tp189
g1
(g9
g10
(I596
I622
F476.7363344051448
F6697.299999999938
tp190
tp191
Rp192
s(g1
(g2
g3
Ntp193
Rp194
(g6
I01
tp195
bg41
tp196
g1
(g9
g10
(I2528
I2710
F451.53726937269255
F28496.66000000083
tp197
tp198
Rp199
s(g1
(g2
g3
Ntp200
Rp201
(g41
I00
tp202
bg6
tp203
g1
(g9
g10
(I15
I39
F-103.43589743589743
F193.66
tp204
tp205
Rp206
s(g1
(g2
g3
Ntp207
Rp208
(g16
I00
tp209
bg16
tp210
g1
(g9
g10
(I1
I11
F-408.0909090909091
F21.11
tp211
tp212
Rp213
s(g1
(g2
g3
Ntp214
Rp215
(g41
I01
tp216
bg41
tp217
g1
(g9
g10
(I7
I24
F-193.9166666666666
F97.46
tp218
tp219
Rp220
s(g1
(g2
g3
Ntp221
Rp222
(g25
I01
tp223
bg6
tp224
g1
(g9
g10
(I6
I215
F-475.6558139534886
F267.34
tp225
tp226
Rp227
s(g1
(g2
g3
Ntp228
Rp229
(g25
I00
tp230
bg18
tp231
g1
(g9
g10
(I5
I678
F-496.22123893805343
F703.6200000000017
tp232
tp233
Rp234
s(g1
(g2
g3
Ntp235
Rp236
(g41
I01
tp237
bg18
tp238
g1
(g9
g10
(I6
I22
F-217.13636363636357
F84.22999999999999
tp239
tp240
Rp241
s(g1
(g2
g3
Ntp242
Rp243
(g25
I01
tp244
bg16
tp245
g1
(g9
g10
(I1739
I1925
F420.4046753246751
F19642.79000000047
tp246
tp247
Rp248
s(g1
(g2
g3
Ntp249
Rp250
(g6
I01
tp251
bg16
tp252
g1
(g9
g10
(I6
I86
F-432.4651162790698
F144.07999999999998
tp253
tp254
Rp255
s(g1
(g2
g3
Ntp256
Rp257
(g16
I00
tp258
bg41
tp259
g1
(g9
g10
(I1
I6
F-329.6666666666667
F16.220000000000002
tp260
tp261
Rp262
s(g1
(g2
g3
Ntp263
Rp264
(g25
I00
tp265
bg41
tp266
g1
(g9
g10
(I31
I822
F-465.3892944038935
F1106.5000000000025
tp267
tp268
Rp269
s(g1
(g2
g3
Ntp270
Rp271
(g16
I01
tp272
bg16
tp273
g1
(g9
g10
(I2
I2
F517.0
F22.34
tp274
tp275
Rp276
s.