(dp0
(ccopy_reg
_reconstructor
p1
(cfeatureBasedGameState
FeatureBasedGameState
p2
c__builtin__
object
p3
Ntp4
Rp5
(S'West'
p6
I01
tp7
bg6
tp8
g1
(cmodel
ModelEntry
p9
c__builtin__
tuple
p10
(I10
I385
F-470.8545454545453
F497.21000000000083
tp11
tp12
Rp13
s(g1
(g2
g3
Ntp14
Rp15
(S'East'
p16
I01
tp17
bS'Stop'
p18
tp19
g1
(g9
g10
(I1
I15
F-384.88888888888886
F19.360000000000003
tp20
tp21
Rp22
s(g1
(g2
g3
Ntp23
Rp24
(S'North'
p25
I00
tp26
bg25
tp27
g1
(g9
g10
(I131
I4913
F-474.8870343985324
F6146.799999999893
tp28
tp29
Rp30
s(g1
(g2
g3
Ntp31
Rp32
(g6
I01
tp33
bg18
tp34
g1
(g9
g10
(I20
I412
F-453.5104408352669
F631.3699999999998
tp35
tp36
Rp37
s(g1
(g2
g3
Ntp38
Rp39
(g6
I00
tp40
bS'South'
p41
tp42
g1
(g9
g10
(I9
I678
F-484.7595870206485
F781.3299999999994
tp43
tp44
Rp45
s(g1
(g2
g3
Ntp46
Rp47
(g25
I00
tp48
bg16
tp49
g1
(g9
g10
(I16
I614
F-475.2052117263839
F766.2399999999981
tp50
tp51
Rp52
s(g1
(g2
g3
Ntp53
Rp54
(g16
I01
tp55
bg6
tp56
g1
(g9
g10
(I2
I58
F-344.29525862068965
F36.160000000000004
tp57
tp58
Rp59
s(g1
(g2
g3
Ntp60
Rp61
(S'East'
p62
I01
tp63
bS'North'
p64
tp65
g1
(g9
g10
(I1
I32
F-371.125
F18.310000000000002
tp66
tp67
Rp68
s(g1
(g2
g3
Ntp69
Rp70
(g6
I01
tp71
bg25
tp72
g1
(g9
g10
(I5
I553
F-488.96084337349436
F368.6500000000001
tp73
tp74
Rp75
s(g1
(g2
g3
Ntp76
Rp77
(g25
I01
tp78
bg25
tp79
g1
(g9
g10
(I8
I985
F-495.8649746192893
F1025.730000000006
tp80
tp81
Rp82
s(g1
(g2
g3
Ntp83
Rp84
(g25
I01
tp85
bg41
tp86
g1
(g9
g10
(I15
I1799
F-491.4772946859906
F1123.2099999999996
tp87
tp88
Rp89
s(g1
(g2
g3
Ntp90
Rp91
(g41
I01
tp92
bg6
tp93
g1
(g9
g10
(I13
I51
F-239.84313725490185
F183.68
tp94
tp95
Rp96
s(g1
(g2
g3
Ntp97
Rp98
(g25
I00
tp99
bg6
tp100
g1
(g9
g10
(I14
I3604
F-497.33740288568316
F3699.9599999997017
tp101
tp102
Rp103
s(g1
(g2
g3
Ntp104
Rp105
(g41
I00
tp106
bg18
tp107
g1
(g9
g10
(I7
I58
F-374.46551724137913
F130.80999999999997
tp108
tp109
Rp110
s(g1
(g2
g3
Ntp111
Rp112
(g62
I00
tp113
bg64
tp114
g1
(g9
g10
(I7
I30
F-326.00000000000006
F112.34
tp115
tp116
Rp117
s(g1
(g2
g3
Ntp118
Rp119
(g25
I01
tp120
bg18
tp121
g1
(g9
g10
(I8
I1050
F-499.43147208121826
F990.6000000000015
tp122
tp123
Rp124
s(g1
(g2
g3
Ntp125
Rp126
(g41
I01
tp127
bg16
tp128
g1
(g9
g10
(I16
I60
F-228.08333333333334
F223.15
tp129
tp130
Rp131
s(g1
(g2
g3
Ntp132
Rp133
(g6
I00
tp134
bg25
tp135
g1
(g9
g10
(I17
I701
F-479.5734664764619
F844.1899999999993
tp136
tp137
Rp138
s(g1
(g2
g3
Ntp139
Rp140
(g41
I00
tp141
bg41
tp142
g1
(g9
g10
(I104
I180
F93.20555555555549
F1247.770000000001
tp143
tp144
Rp145
s(g1
(g2
g3
Ntp146
Rp147
(g41
I00
tp148
bg25
tp149
g1
(g9
g10
(I16
I73
F-275.4109589041095
F236.95000000000002
tp150
tp151
Rp152
s(g1
(g2
g3
Ntp153
Rp154
(g6
I00
tp155
bg6
tp156
g1
(g9
g10
(I130
I1414
F-405.7213578500716
F2747.0999999999867
tp157
tp158
Rp159
s(g1
(g2
g3
Ntp160
Rp161
(g16
I01
tp162
bg41
tp163
g1
(g9
g10
(I1
I30
F-387.3333333333333
F19.14
tp164
tp165
Rp166
s(g1
(g2
g3
Ntp167
Rp168
(g16
I00
tp169
bg18
tp170
g1
(g9
g10
(I5
I37
F-364.18918918918916
F87.24999999999999
tp171
tp172
Rp173
s(g1
(g2
g3
Ntp174
Rp175
(g6
I00
tp176
bg18
tp177
g1
(g9
g10
(I40
I849
F-451.87161366313336
F1257.609999999998
tp178
tp179
Rp180
s(g1
(g2
g3
Ntp181
Rp182
(g41
I00
tp183
bg16
tp184
g1
(g9
g10
(I7
I58
F-371.9137931034481
F132.29000000000002
tp185
tp186
Rp187
s(g1
(g2
g3
Ntp188
Rp189
(g16
I00
tp190
bg6
tp191
g1
(g9
g10
(I7
I41
F-326.00000000000006
F112.34
tp192
tp193
Rp194
s(g1
(g2
g3
Ntp195
Rp196
(g6
I00
tp197
bg16
tp198
g1
(g9
g10
(I30
I771
F-464.6212710765242
F1043.7699999999993
tp199
tp200
Rp201
s(g1
(g2
g3
Ntp202
Rp203
(g41
I01
tp204
bg25
tp205
g1
(g9
g10
(I6
I113
F-311.2270369240159
F97.72
tp206
tp207
Rp208
s(g1
(g2
g3
Ntp209
Rp210
(g6
I01
tp211
bg41
tp212
g1
(g9
g10
(I7
I591
F-481.24528301886784
F440.58000000000004
tp213
tp214
Rp215
s(g1
(g2
g3
Ntp216
Rp217
(g41
I00
tp218
bg6
tp219
g1
(g9
g10
(I9
I39
F-261.8205128205128
F131.89
tp220
tp221
Rp222
s(g1
(g2
g3
Ntp223
Rp224
(g16
I00
tp225
bg16
tp226
g1
(g9
g10
(I20
I61
F-156.8196721311475
F270.34000000000003
tp227
tp228
Rp229
s(g1
(g2
g3
Ntp230
Rp231
(g41
I01
tp232
bg41
tp233
g1
(g9
g10
(I4
I43
F-399.72093023255815
F86.11999999999998
tp234
tp235
Rp236
s(g1
(g2
g3
Ntp237
Rp238
(g25
I01
tp239
bg6
tp240
g1
(g9
g10
(I25
I1106
F-481.34990958408736
F1312.2700000000052
tp241
tp242
Rp243
s(g1
(g2
g3
Ntp244
Rp245
(g25
I00
tp246
bg18
tp247
g1
(g9
g10
(I32
I3836
F-495.3360271115735
F4014.909999999859
tp248
tp249
Rp250
s(g1
(g2
g3
Ntp251
Rp252
(g41
I01
tp253
bg18
tp254
g1
(g9
g10
(I7
I49
F-351.5306122448979
F121.74999999999997
tp255
tp256
Rp257
s(g1
(g2
g3
Ntp258
Rp259
(g25
I01
tp260
bg16
tp261
g1
(g9
g10
(I14
I1085
F-481.01760000000047
F743.6400000000007
tp262
tp263
Rp264
s(g1
(g2
g3
Ntp265
Rp266
(g6
I01
tp267
bg16
tp268
g1
(g9
g10
(I8
I718
F-481.321022727273
F417.75000000000017
tp269
tp270
Rp271
s(g1
(g2
g3
Ntp272
Rp273
(g16
I00
tp274
bg41
tp275
g1
(g9
g10
(I3
I34
F-414.5294117647058
F63.06
tp276
tp277
Rp278
s(g1
(g2
g3
Ntp279
Rp280
(g25
I00
tp281
bg41
tp282
g1
(g9
g10
(I54
I3648
F-489.14199561403524
F4044.099999999991
tp283
tp284
Rp285
s(g1
(g2
g3
Ntp286
Rp287
(g16
I01
tp288
bg16
tp289
g1
(g9
g10
(I2
I11
F-309.7272727272727
F31.929999999999996
tp290
tp291
Rp292
s.