(dp0
(ccopy_reg
_reconstructor
p1
(cfeatureBasedGameState
FeatureBasedGameState
p2
c__builtin__
object
p3
Ntp4
Rp5
(S'West'
p6
I01
tp7
bg6
tp8
g1
(cmodel
ModelEntry
p9
c__builtin__
tuple
p10
(I8
I201
F-456.68159203980065
F288.07000000000005
tp11
tp12
Rp13
s(g1
(g2
g3
Ntp14
Rp15
(S'East'
p16
I01
tp17
bS'Stop'
p18
tp19
g1
(g9
g10
(I0
I4
F-494.0
F4.24
tp20
tp21
Rp22
s(g1
(g2
g3
Ntp23
Rp24
(S'North'
p25
I00
tp26
bg25
tp27
g1
(g9
g10
(I64
I2485
F-476.0189134808862
F3080.93000000001
tp28
tp29
Rp30
s(g1
(g2
g3
Ntp31
Rp32
(g6
I01
tp33
bg18
tp34
g1
(g9
g10
(I13
I224
F-441.03571428571433
F356.0800000000001
tp35
tp36
Rp37
s(g1
(g2
g3
Ntp38
Rp39
(g6
I00
tp40
bS'South'
p41
tp42
g1
(g9
g10
(I4
I333
F-486.9039039039038
F376.6099999999998
tp43
tp44
Rp45
s(g1
(g2
g3
Ntp46
Rp47
(g25
I00
tp48
bg16
tp49
g1
(g9
g10
(I7
I328
F-479.4573170731713
F395.3799999999999
tp50
tp51
Rp52
s(g1
(g2
g3
Ntp53
Rp54
(g16
I01
tp55
bg6
tp56
g1
(g9
g10
(I0
I4
F-498.25
F4.07
tp57
tp58
Rp59
s(g1
(g2
g3
Ntp60
Rp61
(g6
I01
tp62
bg25
tp63
g1
(g9
g10
(I4
I177
F-481.3672316384182
F209.97999999999988
tp64
tp65
Rp66
s(g1
(g2
g3
Ntp67
Rp68
(g25
I01
tp69
bg25
tp70
g1
(g9
g10
(I4
I489
F-496.1288343558282
F507.9300000000004
tp71
tp72
Rp73
s(g1
(g2
g3
Ntp74
Rp75
(g25
I01
tp76
bg41
tp77
g1
(g9
g10
(I9
I523
F-489.04015296367095
F580.3199999999995
tp78
tp79
Rp80
s(g1
(g2
g3
Ntp81
Rp82
(g41
I01
tp83
bg6
tp84
g1
(g9
g10
(I2
I23
F-408.3478260869565
F44.08
tp85
tp86
Rp87
s(g1
(g2
g3
Ntp88
Rp89
(g25
I00
tp90
bg6
tp91
g1
(g9
g10
(I3
I1730
F-499.4815028901727
F1738.9700000000134
tp92
tp93
Rp94
s(g1
(g2
g3
Ntp95
Rp96
(g41
I00
tp97
bg18
tp98
g1
(g9
g10
(I9
I45
F-294.8444444444444
F137.32000000000002
tp99
tp100
Rp101
s(g1
(g2
g3
Ntp102
Rp103
(g25
I01
tp104
bg18
tp105
g1
(g9
g10
(I5
I496
F-497.9274193548388
F506.2800000000007
tp106
tp107
Rp108
s(g1
(g2
g3
Ntp109
Rp110
(g41
I01
tp111
bg16
tp112
g1
(g9
g10
(I2
I25
F-414.9599999999999
F46.26
tp113
tp114
Rp115
s(g1
(g2
g3
Ntp116
Rp117
(g6
I00
tp118
bg25
tp119
g1
(g9
g10
(I7
I341
F-483.71847507331404
F396.51999999999975
tp120
tp121
Rp122
s(g1
(g2
g3
Ntp123
Rp124
(g41
I00
tp125
bg41
tp126
g1
(g9
g10
(I51
I109
F-22.036697247706464
F629.9799999999999
tp127
tp128
Rp129
s(g1
(g2
g3
Ntp130
Rp131
(g41
I00
tp132
bg25
tp133
g1
(g9
g10
(I15
I52
F-204.69230769230768
F205.55999999999995
tp134
tp135
Rp136
s(g1
(g2
g3
Ntp137
Rp138
(g6
I00
tp139
bg6
tp140
g1
(g9
g10
(I64
I764
F-414.3141361256552
F1418.639999999998
tp141
tp142
Rp143
s(g1
(g2
g3
Ntp144
Rp145
(g16
I01
tp146
bg41
tp147
g1
(g9
g10
(I1
I5
F-297.0
F15.149999999999999
tp148
tp149
Rp150
s(g1
(g2
g3
Ntp151
Rp152
(g16
I00
tp153
bg18
tp154
g1
(g9
g10
(I4
I22
F-316.3181818181818
F62.410000000000004
tp155
tp156
Rp157
s(g1
(g2
g3
Ntp158
Rp159
(g6
I00
tp160
bg18
tp161
g1
(g9
g10
(I32
I500
F-434.97799999999995
F825.1100000000005
tp162
tp163
Rp164
s(g1
(g2
g3
Ntp165
Rp166
(g41
I00
tp167
bg16
tp168
g1
(g9
g10
(I2
I31
F-428.5161290322579
F53.16000000000001
tp169
tp170
Rp171
s(g1
(g2
g3
Ntp172
Rp173
(g16
I00
tp174
bg6
tp175
g1
(g9
g10
(I1
I17
F-437.5882352941176
F27.61
tp176
tp177
Rp178
s(g1
(g2
g3
Ntp179
Rp180
(g6
I00
tp181
bg16
tp182
g1
(g9
g10
(I13
I377
F-468.26525198938975
F496.63999999999965
tp183
tp184
Rp185
s(g1
(g2
g3
Ntp186
Rp187
(g41
I01
tp188
bg25
tp189
g1
(g9
g10
(I8
I28
F-209.1785714285714
F109.43
tp190
tp191
Rp192
s(g1
(g2
g3
Ntp193
Rp194
(g6
I01
tp195
bg41
tp196
g1
(g9
g10
(I6
I191
F-469.1937172774871
F249.83999999999997
tp197
tp198
Rp199
s(g1
(g2
g3
Ntp200
Rp201
(g41
I00
tp202
bg6
tp203
g1
(g9
g10
(I2
I17
F-374.8235294117647
F38.28000000000001
tp204
tp205
Rp206
s(g1
(g2
g3
Ntp207
Rp208
(g16
I00
tp209
bg16
tp210
g1
(g9
g10
(I7
I48
F-351.64583333333337
F119.20999999999995
tp211
tp212
Rp213
s(g1
(g2
g3
Ntp214
Rp215
(g41
I01
tp216
bg41
tp217
g1
(g9
g10
(I4
I29
F-354.2413793103447
F71.27
tp218
tp219
Rp220
s(g1
(g2
g3
Ntp221
Rp222
(g25
I01
tp223
bg6
tp224
g1
(g9
g10
(I17
I588
F-474.4744897959181
F738.0899999999991
tp225
tp226
Rp227
s(g1
(g2
g3
Ntp228
Rp229
(g25
I00
tp230
bg18
tp231
g1
(g9
g10
(I20
I1966
F-493.6780264496425
F2090.290000000018
tp232
tp233
Rp234
s(g1
(g2
g3
Ntp235
Rp236
(g41
I01
tp237
bg18
tp238
g1
(g9
g10
(I14
I46
F-190.1086956521739
F188.54999999999998
tp239
tp240
Rp241
s(g1
(g2
g3
Ntp242
Rp243
(g25
I01
tp244
bg16
tp245
g1
(g9
g10
(I10
I310
F-471.2290322580648
F399.1899999999998
tp246
tp247
Rp248
s(g1
(g2
g3
Ntp249
Rp250
(g6
I01
tp251
bg16
tp252
g1
(g9
g10
(I7
I186
F-465.8978494623658
F249.42999999999992
tp253
tp254
Rp255
s(g1
(g2
g3
Ntp256
Rp257
(g16
I00
tp258
bg41
tp259
g1
(g9
g10
(I0
I15
F-504.7333333333334
F14.29
tp260
tp261
Rp262
s(g1
(g2
g3
Ntp263
Rp264
(g25
I00
tp265
bg41
tp266
g1
(g9
g10
(I30
I1828
F-487.6575492341346
F2053.6200000000185
tp267
tp268
Rp269
s(g1
(g2
g3
Ntp270
Rp271
(g16
I01
tp272
bg16
tp273
g1
(g9
g10
(I0
I4
F-500.0
F4.0
tp274
tp275
Rp276
s.