(dp0
(ccopy_reg
_reconstructor
p1
(cfeatureBasedGameState
FeatureBasedGameState
p2
c__builtin__
object
p3
Ntp4
Rp5
(S'West'
p6
I01
tp7
bg6
tp8
g1
(cmodel
ModelEntry
p9
c__builtin__
tuple
p10
(I0
I36
F-497.74999999999994
F36.809999999999995
tp11
tp12
Rp13
s(g1
(g2
g3
Ntp14
Rp15
(S'North'
p16
I00
tp17
bg16
tp18
g1
(g9
g10
(I15
I475
F-470.0947368421057
F617.0500000000005
tp19
tp20
Rp21
s(g1
(g2
g3
Ntp22
Rp23
(g6
I01
tp24
bS'Stop'
p25
tp26
g1
(g9
g10
(I1
I39
F-473.51282051282067
F49.33
tp27
tp28
Rp29
s(g1
(g2
g3
Ntp30
Rp31
(g6
I00
tp32
bS'South'
p33
tp34
g1
(g9
g10
(I2
I79
F-473.7848101265822
F99.70999999999997
tp35
tp36
Rp37
s(g1
(g2
g3
Ntp38
Rp39
(g16
I00
tp40
bS'East'
p41
tp42
g1
(g9
g10
(I1
I55
F-484.1999999999998
F63.69000000000001
tp43
tp44
Rp45
s(g1
(g2
g3
Ntp46
Rp47
(g41
I01
tp48
bg6
tp49
g1
(g9
g10
(I0
I1
F-506.0
F0.94
tp50
tp51
Rp52
s(g1
(g2
g3
Ntp53
Rp54
(g6
I01
tp55
bg16
tp56
g1
(g9
g10
(I1
I35
F-476.45714285714297
F43.24
tp57
tp58
Rp59
s(g1
(g2
g3
Ntp60
Rp61
(g16
I01
tp62
bg16
tp63
g1
(g9
g10
(I1
I96
F-493.2395833333334
F102.49000000000002
tp64
tp65
Rp66
s(g1
(g2
g3
Ntp67
Rp68
(g16
I01
tp69
bg33
tp70
g1
(g9
g10
(I3
I107
F-478.2056074766356
F130.32000000000005
tp71
tp72
Rp73
s(g1
(g2
g3
Ntp74
Rp75
(g33
I01
tp76
bg6
tp77
g1
(g9
g10
(I1
I3
F-163.0
F13.11
tp78
tp79
Rp80
s(g1
(g2
g3
Ntp81
Rp82
(g16
I00
tp83
bg6
tp84
g1
(g9
g10
(I3
I367
F-493.06811989100805
F392.4400000000017
tp85
tp86
Rp87
s(g1
(g2
g3
Ntp88
Rp89
(g33
I00
tp90
bg25
tp91
g1
(g9
g10
(I8
I17
F-18.882352941176435
F98.78999999999999
tp92
tp93
Rp94
s(g1
(g2
g3
Ntp95
Rp96
(g16
I01
tp97
bg25
tp98
g1
(g9
g10
(I2
I102
F-488.9999999999999
F113.2200000000001
tp99
tp100
Rp101
s(g1
(g2
g3
Ntp102
Rp103
(g33
I01
tp104
bg41
tp105
g1
(g9
g10
(I1
I5
F-296.20000000000005
F15.19
tp106
tp107
Rp108
s(g1
(g2
g3
Ntp109
Rp110
(g6
I00
tp111
bg16
tp112
g1
(g9
g10
(I0
I71
F-505.28169014084494
F67.25000000000001
tp113
tp114
Rp115
s(g1
(g2
g3
Ntp116
Rp117
(g33
I00
tp118
bg33
tp119
g1
(g9
g10
(I10
I21
F-13.047619047619058
F123.25999999999998
tp120
tp121
Rp122
s(g1
(g2
g3
Ntp123
Rp124
(g33
I00
tp125
bg16
tp126
g1
(g9
g10
(I4
I10
F-91.30000000000001
F50.870000000000005
tp127
tp128
Rp129
s(g1
(g2
g3
Ntp130
Rp131
(g6
I00
tp132
bg6
tp133
g1
(g9
g10
(I15
I141
F-391.60283687943274
F293.84000000000003
tp134
tp135
Rp136
s(g1
(g2
g3
Ntp137
Rp138
(g41
I00
tp139
bg25
tp140
g1
(g9
g10
(I1
I3
F-158.33333333333334
F13.249999999999998
tp141
tp142
Rp143
s(g1
(g2
g3
Ntp144
Rp145
(g6
I00
tp146
bg25
tp147
g1
(g9
g10
(I2
I80
F-474.4374999999999
F100.44999999999997
tp148
tp149
Rp150
s(g1
(g2
g3
Ntp151
Rp152
(g33
I00
tp153
bg41
tp154
g1
(g9
g10
(I0
I5
F-490.00000000000006
F5.500000000000001
tp155
tp156
Rp157
s(g1
(g2
g3
Ntp158
Rp159
(g41
I00
tp160
bg6
tp161
g1
(g9
g10
(I1
I3
F-156.33333333333334
F13.309999999999999
tp162
tp163
Rp164
s(g1
(g2
g3
Ntp165
Rp166
(g6
I00
tp167
bg41
tp168
g1
(g9
g10
(I4
I89
F-457.88764044943815
F126.48000000000005
tp169
tp170
Rp171
s(g1
(g2
g3
Ntp172
Rp173
(g33
I01
tp174
bg16
tp175
g1
(g9
g10
(I0
I3
F-496.3333333333333
F3.1100000000000003
tp176
tp177
Rp178
s(g1
(g2
g3
Ntp179
Rp180
(g6
I01
tp181
bg33
tp182
g1
(g9
g10
(I1
I39
F-475.7948717948719
F48.44000000000001
tp183
tp184
Rp185
s(g1
(g2
g3
Ntp186
Rp187
(g33
I00
tp188
bg6
tp189
g1
(g9
g10
(I0
I3
F-492.0
F3.24
tp190
tp191
Rp192
s(g1
(g2
g3
Ntp193
Rp194
(g41
I00
tp195
bg41
tp196
g1
(g9
g10
(I4
I7
F84.28571428571428
F47.89999999999999
tp197
tp198
Rp199
s(g1
(g2
g3
Ntp200
Rp201
(g33
I01
tp202
bg33
tp203
g1
(g9
g10
(I5
I9
F67.44444444444447
F60.07
tp204
tp205
Rp206
s(g1
(g2
g3
Ntp207
Rp208
(g16
I01
tp209
bg6
tp210
g1
(g9
g10
(I2
I102
F-485.02941176470586
F117.26999999999998
tp211
tp212
Rp213
s(g1
(g2
g3
Ntp214
Rp215
(g16
I00
tp216
bg25
tp217
g1
(g9
g10
(I4
I376
F-493.48936170212727
F400.48000000000076
tp218
tp219
Rp220
s(g1
(g2
g3
Ntp221
Rp222
(g33
I01
tp223
bg25
tp224
g1
(g9
g10
(I1
I5
F-291.8
F15.409999999999998
tp225
tp226
Rp227
s(g1
(g2
g3
Ntp228
Rp229
(g16
I01
tp230
bg41
tp231
g1
(g9
g10
(I1
I56
F-486.8571428571428
F63.36
tp232
tp233
Rp234
s(g1
(g2
g3
Ntp235
Rp236
(g6
I01
tp237
bg41
tp238
g1
(g9
g10
(I0
I32
F-505.40624999999994
F30.270000000000003
tp239
tp240
Rp241
s(g1
(g2
g3
Ntp242
Rp243
(g41
I00
tp244
bg33
tp245
g1
(g9
g10
(I0
I1
F-516.0
F0.84
tp246
tp247
Rp248
s(g1
(g2
g3
Ntp249
Rp250
(g16
I00
tp251
bg33
tp252
g1
(g9
g10
(I9
I348
F-478.2959770114943
F423.5300000000006
tp253
tp254
Rp255
s.