(dp0
(ccopy_reg
_reconstructor
p1
(cfeatureBasedGameState
FeatureBasedGameState
p2
c__builtin__
object
p3
Ntp4
Rp5
(S'West'
p6
I01
tp7
bg6
tp8
g1
(cmodel
ModelEntry
p9
c__builtin__
tuple
p10
(I10
I385
F-470.8545454545453
F497.21000000000083
tp11
tp12
Rp13
s(g1
(g2
g3
Ntp14
Rp15
(S'East'
p16
I01
tp17
bS'Stop'
p18
tp19
g1
(g9
g10
(I1
I9
F-384.88888888888886
F19.360000000000003
tp20
tp21
Rp22
s(g1
(g2
g3
Ntp23
Rp24
(S'North'
p25
I00
tp26
bg25
tp27
g1
(g9
g10
(I130
I4912
F-475.22495928338554
F6128.9499999998925
tp28
tp29
Rp30
s(g1
(g2
g3
Ntp31
Rp32
(g6
I01
tp33
bg18
tp34
g1
(g9
g10
(I20
I431
F-453.5104408352669
F631.3699999999998
tp35
tp36
Rp37
s(g1
(g2
g3
Ntp38
Rp39
(g6
I00
tp40
bS'South'
p41
tp42
g1
(g9
g10
(I9
I678
F-484.7595870206485
F781.3299999999994
tp43
tp44
Rp45
s(g1
(g2
g3
Ntp46
Rp47
(g25
I00
tp48
bg16
tp49
g1
(g9
g10
(I16
I614
F-475.2052117263839
F766.2399999999981
tp50
tp51
Rp52
s(g1
(g2
g3
Ntp53
Rp54
(g16
I01
tp55
bg6
tp56
g1
(g9
g10
(I1
I8
F-371.125
F18.310000000000002
tp57
tp58
Rp59
s(g1
(g2
g3
Ntp60
Rp61
(g6
I01
tp62
bg25
tp63
g1
(g9
g10
(I5
I332
F-488.96084337349436
F368.6500000000001
tp64
tp65
Rp66
s(g1
(g2
g3
Ntp67
Rp68
(g25
I01
tp69
bg25
tp70
g1
(g9
g10
(I8
I985
F-495.8649746192893
F1025.730000000006
tp71
tp72
Rp73
s(g1
(g2
g3
Ntp74
Rp75
(g25
I01
tp76
bg41
tp77
g1
(g9
g10
(I15
I1035
F-491.4772946859906
F1123.2099999999996
tp78
tp79
Rp80
s(g1
(g2
g3
Ntp81
Rp82
(g41
I01
tp83
bg6
tp84
g1
(g9
g10
(I13
I51
F-239.84313725490185
F183.68
tp85
tp86
Rp87
s(g1
(g2
g3
Ntp88
Rp89
(g25
I00
tp90
bg6
tp91
g1
(g9
g10
(I14
I3604
F-497.33740288568316
F3699.9599999997017
tp92
tp93
Rp94
s(g1
(g2
g3
Ntp95
Rp96
(g41
I00
tp97
bg18
tp98
g1
(g9
g10
(I7
I58
F-374.46551724137913
F130.80999999999997
tp99
tp100
Rp101
s(g1
(g2
g3
Ntp102
Rp103
(g25
I01
tp104
bg18
tp105
g1
(g9
g10
(I8
I985
F-499.43147208121826
F990.6000000000015
tp106
tp107
Rp108
s(g1
(g2
g3
Ntp109
Rp110
(g41
I01
tp111
bg16
tp112
g1
(g9
g10
(I16
I60
F-228.08333333333334
F223.15
tp113
tp114
Rp115
s(g1
(g2
g3
Ntp116
Rp117
(g6
I00
tp118
bg25
tp119
g1
(g9
g10
(I17
I701
F-479.5734664764619
F844.1899999999993
tp120
tp121
Rp122
s(g1
(g2
g3
Ntp123
Rp124
(g41
I00
tp125
bg41
tp126
g1
(g9
g10
(I103
I179
F87.10614525139658
F1229.920000000001
tp127
tp128
Rp129
s(g1
(g2
g3
Ntp130
Rp131
(g41
I00
tp132
bg25
tp133
g1
(g9
g10
(I16
I73
F-275.4109589041095
F236.95000000000002
tp134
tp135
Rp136
s(g1
(g2
g3
Ntp137
Rp138
(g6
I00
tp139
bg6
tp140
g1
(g9
g10
(I129
I1413
F-406.8471337579627
F2729.249999999987
tp141
tp142
Rp143
s(g1
(g2
g3
Ntp144
Rp145
(g16
I01
tp146
bg41
tp147
g1
(g9
g10
(I1
I9
F-387.3333333333333
F19.14
tp148
tp149
Rp150
s(g1
(g2
g3
Ntp151
Rp152
(g16
I00
tp153
bg18
tp154
g1
(g9
g10
(I5
I37
F-364.18918918918916
F87.24999999999999
tp155
tp156
Rp157
s(g1
(g2
g3
Ntp158
Rp159
(g6
I00
tp160
bg18
tp161
g1
(g9
g10
(I40
I849
F-451.87161366313336
F1257.609999999998
tp162
tp163
Rp164
s(g1
(g2
g3
Ntp165
Rp166
(g41
I00
tp167
bg16
tp168
g1
(g9
g10
(I7
I58
F-371.9137931034481
F132.29000000000002
tp169
tp170
Rp171
s(g1
(g2
g3
Ntp172
Rp173
(g16
I00
tp174
bg6
tp175
g1
(g9
g10
(I7
I41
F-326.00000000000006
F112.34
tp176
tp177
Rp178
s(g1
(g2
g3
Ntp179
Rp180
(g6
I00
tp181
bg16
tp182
g1
(g9
g10
(I30
I771
F-464.6212710765242
F1043.7699999999993
tp183
tp184
Rp185
s(g1
(g2
g3
Ntp186
Rp187
(g41
I01
tp188
bg25
tp189
g1
(g9
g10
(I5
I29
F-324.5862068965518
F79.86999999999999
tp190
tp191
Rp192
s(g1
(g2
g3
Ntp193
Rp194
(g6
I01
tp195
bg41
tp196
g1
(g9
g10
(I7
I371
F-481.24528301886784
F440.58000000000004
tp197
tp198
Rp199
s(g1
(g2
g3
Ntp200
Rp201
(g41
I00
tp202
bg6
tp203
g1
(g9
g10
(I9
I39
F-261.8205128205128
F131.89
tp204
tp205
Rp206
s(g1
(g2
g3
Ntp207
Rp208
(g16
I00
tp209
bg16
tp210
g1
(g9
g10
(I19
I60
F-179.1833333333333
F252.49000000000004
tp211
tp212
Rp213
s(g1
(g2
g3
Ntp214
Rp215
(g41
I01
tp216
bg41
tp217
g1
(g9
g10
(I4
I43
F-399.72093023255815
F86.11999999999998
tp218
tp219
Rp220
s(g1
(g2
g3
Ntp221
Rp222
(g25
I01
tp223
bg6
tp224
g1
(g9
g10
(I25
I1106
F-481.34990958408736
F1312.2700000000052
tp225
tp226
Rp227
s(g1
(g2
g3
Ntp228
Rp229
(g25
I00
tp230
bg18
tp231
g1
(g9
g10
(I32
I3836
F-495.3360271115735
F4014.909999999859
tp232
tp233
Rp234
s(g1
(g2
g3
Ntp235
Rp236
(g41
I01
tp237
bg18
tp238
g1
(g9
g10
(I7
I49
F-351.5306122448979
F121.74999999999997
tp239
tp240
Rp241
s(g1
(g2
g3
Ntp242
Rp243
(g25
I01
tp244
bg16
tp245
g1
(g9
g10
(I14
I625
F-481.01760000000047
F743.6400000000007
tp246
tp247
Rp248
s(g1
(g2
g3
Ntp249
Rp250
(g6
I01
tp251
bg16
tp252
g1
(g9
g10
(I8
I352
F-481.321022727273
F417.75000000000017
tp253
tp254
Rp255
s(g1
(g2
g3
Ntp256
Rp257
(g16
I00
tp258
bg41
tp259
g1
(g9
g10
(I3
I34
F-414.5294117647058
F63.06
tp260
tp261
Rp262
s(g1
(g2
g3
Ntp263
Rp264
(g25
I00
tp265
bg41
tp266
g1
(g9
g10
(I54
I3648
F-489.14199561403524
F4044.099999999991
tp267
tp268
Rp269
s(g1
(g2
g3
Ntp270
Rp271
(g16
I01
tp272
bg16
tp273
g1
(g9
g10
(I2
I11
F-309.7272727272727
F31.929999999999996
tp274
tp275
Rp276
s.