(dp0
(ccopy_reg
_reconstructor
p1
(cfeatureBasedGameState
FeatureBasedGameState
p2
c__builtin__
object
p3
Ntp4
Rp5
(S'West'
p6
I01
tp7
bg6
tp8
g1
(cmodel
ModelEntry
p9
c__builtin__
tuple
p10
(I1
I69
F-481.42028985507244
F81.82000000000001
tp11
tp12
Rp13
s(g1
(g2
g3
Ntp14
Rp15
(S'North'
p16
I00
tp17
bg16
tp18
g1
(g9
g10
(I95891
I99178
F488.3664623202742
F1079420.0899989628
tp19
tp20
Rp21
s(g1
(g2
g3
Ntp22
Rp23
(g6
I01
tp24
bS'Stop'
p25
tp26
g1
(g9
g10
(I1960
I4303
F-32.64025098768292
F24413.489999999652
tp27
tp28
Rp29
s(g1
(g2
g3
Ntp30
Rp31
(g6
I00
tp32
bS'South'
p33
tp34
g1
(g9
g10
(I2
I113
F-480.96460176991167
F134.50999999999993
tp35
tp36
Rp37
s(g1
(g2
g3
Ntp38
Rp39
(g16
I00
tp40
bS'East'
p41
tp42
g1
(g9
g10
(I4
I102
F-462.04901960784315
F140.70999999999995
tp43
tp44
Rp45
s(g1
(g2
g3
Ntp46
Rp47
(g6
I01
tp48
bg16
tp49
g1
(g9
g10
(I6
I67
F-413.1343283582088
F125.19999999999999
tp50
tp51
Rp52
s(g1
(g2
g3
Ntp53
Rp54
(g16
I01
tp55
bg16
tp56
g1
(g9
g10
(I0
I159
F-504.2641509433967
F152.21999999999994
tp57
tp58
Rp59
s(g1
(g2
g3
Ntp60
Rp61
(g16
I01
tp62
bg33
tp63
g1
(g9
g10
(I15132
I15291
F508.84775358053633
F169553.9100000087
tp64
tp65
Rp66
s(g1
(g2
g3
Ntp67
Rp68
(g33
I01
tp69
bg6
tp70
g1
(g9
g10
(I8496
I8514
F517.4127319708717
F95136.51999999682
tp71
tp72
Rp73
s(g1
(g2
g3
Ntp74
Rp75
(g16
I00
tp76
bg6
tp77
g1
(g9
g10
(I1
I582
F-499.6013745704463
F584.3200000000029
tp78
tp79
Rp80
s(g1
(g2
g3
Ntp81
Rp82
(g33
I00
tp83
bg25
tp84
g1
(g9
g10
(I7
I34
F-281.97058823529414
F108.13
tp85
tp86
Rp87
s(g1
(g2
g3
Ntp88
Rp89
(g16
I01
tp90
bg25
tp91
g1
(g9
g10
(I3
I179
F-491.9273743016761
F193.44999999999993
tp92
tp93
Rp94
s(g1
(g2
g3
Ntp95
Rp96
(g33
I01
tp97
bg41
tp98
g1
(g9
g10
(I16867
I16938
F515.5635848388205
F188954.16000001633
tp99
tp100
Rp101
s(g1
(g2
g3
Ntp102
Rp103
(g6
I00
tp104
bg16
tp105
g1
(g9
g10
(I1
I105
F-493.895238095238
F111.40999999999998
tp106
tp107
Rp108
s(g1
(g2
g3
Ntp109
Rp110
(g33
I00
tp111
bg33
tp112
g1
(g9
g10
(I80756
I80854
F521.3824547950608
F906682.5699992538
tp113
tp114
Rp115
s(g1
(g2
g3
Ntp116
Rp117
(g33
I00
tp118
bg16
tp119
g1
(g9
g10
(I9
I37
F-244.54054054054058
F131.52000000000004
tp120
tp121
Rp122
s(g1
(g2
g3
Ntp123
Rp124
(g6
I00
tp125
bg6
tp126
g1
(g9
g10
(I95891
I97789
F502.37533873953225
F1078001.8199989635
tp127
tp128
Rp129
s(g1
(g2
g3
Ntp130
Rp131
(g41
I00
tp132
bg25
tp133
g1
(g9
g10
(I0
I3
F-502.33333333333326
F2.9299999999999997
tp134
tp135
Rp136
s(g1
(g2
g3
Ntp137
Rp138
(g6
I00
tp139
bg25
tp140
g1
(g9
g10
(I14
I170
F-416.094117647059
F312.6399999999998
tp141
tp142
Rp143
s(g1
(g2
g3
Ntp144
Rp145
(g33
I00
tp146
bg41
tp147
g1
(g9
g10
(I32
I70
F-28.157142857142844
F400.2899999999999
tp148
tp149
Rp150
s(g1
(g2
g3
Ntp151
Rp152
(g41
I00
tp153
bg6
tp154
g1
(g9
g10
(I0
I4
F-495.0
F4.2
tp155
tp156
Rp157
s(g1
(g2
g3
Ntp158
Rp159
(g6
I00
tp160
bg41
tp161
g1
(g9
g10
(I4
I124
F-470.9919354838713
F159.9700000000001
tp162
tp163
Rp164
s(g1
(g2
g3
Ntp165
Rp166
(g33
I01
tp167
bg16
tp168
g1
(g9
g10
(I9717
I9773
F513.2143661107127
F108794.43999998832
tp169
tp170
Rp171
s(g1
(g2
g3
Ntp172
Rp173
(g6
I01
tp174
bg33
tp175
g1
(g9
g10
(I28823
I28899
F516.9563306688829
F322789.2100000269
tp176
tp177
Rp178
s(g1
(g2
g3
Ntp179
Rp180
(g33
I00
tp181
bg6
tp182
g1
(g9
g10
(I32
I70
F-27.557142857142843
F400.7099999999999
tp183
tp184
Rp185
s(g1
(g2
g3
Ntp186
Rp187
(g41
I00
tp188
bg41
tp189
g1
(g9
g10
(I0
I9
F-500.22222222222223
F8.980000000000002
tp190
tp191
Rp192
s(g1
(g2
g3
Ntp193
Rp194
(g33
I01
tp195
bg33
tp196
g1
(g9
g10
(I41
I77
F50.94805194805196
F501.2300000000002
tp197
tp198
Rp199
s(g1
(g2
g3
Ntp200
Rp201
(g16
I01
tp202
bg6
tp203
g1
(g9
g10
(I701
I877
F307.9543899657923
F7962.760000000024
tp204
tp205
Rp206
s(g1
(g2
g3
Ntp207
Rp208
(g16
I00
tp209
bg25
tp210
g1
(g9
g10
(I4
I617
F-497.6936790923824
F631.2300000000021
tp211
tp212
Rp213
s(g1
(g2
g3
Ntp214
Rp215
(g33
I01
tp216
bg25
tp217
g1
(g9
g10
(I20
I49
F-77.44897959183673
F256.04999999999995
tp218
tp219
Rp220
s(g1
(g2
g3
Ntp221
Rp222
(g16
I01
tp223
bg41
tp224
g1
(g9
g10
(I20305
I20403
F513.8247316571066
F227253.6600000436
tp225
tp226
Rp227
s(g1
(g2
g3
Ntp228
Rp229
(g6
I01
tp230
bg41
tp231
g1
(g9
g10
(I1264
I2851
F-45.89512451771307
F15797.529999999872
tp232
tp233
Rp234
s(g1
(g2
g3
Ntp235
Rp236
(g41
I00
tp237
bg33
tp238
g1
(g9
g10
(I0
I3
F-494.33333333333337
F3.17
tp239
tp240
Rp241
s(g1
(g2
g3
Ntp242
Rp243
(g16
I00
tp244
bg33
tp245
g1
(g9
g10
(I12
I703
F-486.8634423897582
F795.3500000000018
tp246
tp247
Rp248
s.