(dp1
S'layout'
p2
(ilayout
Layout
p3
(dp4
S'capsules'
p5
(lp6
sS'numGhosts'
p7
I1
sS'food'
p8
(igame
Grid
p9
(dp10
S'CELLS_PER_INT'
p11
I30
sS'width'
p12
I5
sS'data'
p13
(lp14
(lp15
I00
aI00
aI00
aI00
aI00
aI00
aI00
aI00
aI00
aI00
aa(lp16
I00
aI00
aI00
aI00
aI00
aI01
aI00
aI01
aI00
aI00
aa(lp17
I00
aI00
aI00
aI00
aI00
aI00
aI01
aI00
aI01
aI00
aa(lp18
I00
aI01
aI00
aI01
aI00
aI01
aI00
aI01
aI00
aI00
aa(lp19
I00
aI00
aI00
aI00
aI00
aI00
aI00
aI00
aI00
aI00
aasS'height'
p20
I10
sbsS'agentPositions'
p21
(lp22
(I01
(I1
I1
tp23
tp24
a(I00
(I2
I7
tp25
tp26
asg20
I10
sg12
I5
sS'walls'
p27
(igame
Grid
p28
(dp29
g11
I30
sg12
I5
sg13
(lp30
(lp31
I01
aI01
aI01
aI01
aI01
aI01
aI01
aI01
aI01
aI01
aa(lp32
I01
aI00
aI00
aI00
aI00
aI00
aI00
aI00
aI00
aI01
aa(lp33
I01
aI00
aI00
aI00
aI00
aI00
aI00
aI00
aI00
aI01
aa(lp34
I01
aI00
aI00
aI00
aI00
aI00
aI00
aI00
aI00
aI01
aa(lp35
I01
aI01
aI01
aI01
aI01
aI01
aI01
aI01
aI01
aI01
aasg20
I10
sbsS'totalFood'
p36
I8
sS'layoutText'
p37
(lp38
S'%%%%%'
p39
aS'% . %'
p40
aS'%.G.%'
p41
aS'% . %'
p42
aS'%. .%'
p43
aS'%   %'
p44
aS'%  .%'
p45
aS'%   %'
p46
aS'%P .%'
p47
aS'%%%%%'
p48
asbsS'actions'
p49
(lp50
(I0
S'East'
p51
tp52
a(I1
g51
tp53
a(I0
g51
tp54
a(I1
S'South'
p55
tp56
a(I0
S'North'
p57
tp58
a(I1
S'West'
p59
tp60
a(I0
g57
tp61
a(I1
g55
tp62
a(I0
g57
tp63
a(I1
g51
tp64
a(I0
S'Stop'
p65
tp66
a(I1
g57
tp67
a(I0
g57
tp68
a(I1
g57
tp69
a(I0
g57
tp70
a(I1
g57
tp71
a(I0
g59
tp72
a(I1
g59
tp73
a(I0
g55
tp74
a(I1
g59
tp75
a(I0
g59
tp76
a(I1
g55
tp77
a(I0
g57
tp78
a(I1
g55
tp79
as.